; Function Attrs: nounwind sspstrong uwtable
define dso_local i64 @rb_ary_assoc(i64 noundef %0, i64 noundef %1) #4 {
  %3 = inttoptr i64 %0 to ptr
  %4 = getelementptr inbounds nuw i8, ptr %3, i64 16
  %5 = getelementptr inbounds nuw i8, ptr %3, i64 32
  br label %6

6:                                                ; preds = %34, %2
  %.011 = phi i64 [ 0, %2 ], [ %35, %34 ]
  %7 = load i64, ptr %3, align 8, !tbaa !7
  %8 = and i64 %7, 8192
  %.not.i = icmp eq i64 %8, 0
  br i1 %.not.i, label %rb_array_len.exit, label %rb_array_len.exit.thread

rb_array_len.exit:                                ; preds = %6
  %9 = load i64, ptr %4, align 8, !tbaa !12
  %10 = icmp slt i64 %.011, %9
  br i1 %10, label %14, label %36

rb_array_len.exit.thread:                         ; preds = %6
  %11 = lshr i64 %7, 15
  %12 = and i64 %11, 127
  %13 = icmp samesign ult i64 %.011, %12
  br i1 %13, label %RARRAY_AREF.exit, label %36

14:                                               ; preds = %rb_array_len.exit
  %15 = load ptr, ptr %5, align 8, !tbaa !12
  br label %RARRAY_AREF.exit

RARRAY_AREF.exit:                                 ; preds = %rb_array_len.exit.thread, %14
  %.0.i.i = phi ptr [ %15, %14 ], [ %4, %rb_array_len.exit.thread ]
  %16 = getelementptr i64, ptr %.0.i.i, i64 %.011
  %17 = load i64, ptr %16, align 8, !tbaa !13
  %18 = tail call i64 @rb_check_convert_type_with_id(i64 noundef %17, i32 noundef 7, ptr noundef nonnull @.str, i64 noundef 3249) #24
  %19 = icmp eq i64 %18, 4
  br i1 %19, label %34, label %20

20:                                               ; preds = %RARRAY_AREF.exit
  %21 = inttoptr i64 %18 to ptr
  %22 = load i64, ptr %21, align 8, !tbaa !7
  %23 = and i64 %22, 8192
  %.not.i12 = icmp eq i64 %23, 0
  br i1 %.not.i12, label %rb_array_len.exit14, label %rb_array_len.exit14.thread

rb_array_len.exit14:                              ; preds = %20
  %24 = getelementptr inbounds nuw i8, ptr %21, i64 16
  %25 = load i64, ptr %24, align 8, !tbaa !12
  %26 = icmp sgt i64 %25, 0
  br i1 %26, label %29, label %34

rb_array_len.exit14.thread:                       ; preds = %20
  %27 = and i64 %22, 4161536
  %.not21 = icmp eq i64 %27, 0
  br i1 %.not21, label %34, label %.thread20

.thread20:                                        ; preds = %rb_array_len.exit14.thread
  %28 = getelementptr inbounds nuw i8, ptr %21, i64 16
  br label %RARRAY_AREF.exit17

29:                                               ; preds = %rb_array_len.exit14
  %30 = getelementptr inbounds nuw i8, ptr %21, i64 32
  %31 = load ptr, ptr %30, align 8, !tbaa !12
  br label %RARRAY_AREF.exit17

RARRAY_AREF.exit17:                               ; preds = %.thread20, %29
  %.0.i.i16 = phi ptr [ %28, %.thread20 ], [ %31, %29 ]
  %32 = load i64, ptr %.0.i.i16, align 8, !tbaa !13
  %33 = tail call i64 @rb_equal(i64 noundef %32, i64 noundef %1) #24
  %.not = icmp eq i64 %33, 0
  br i1 %.not, label %34, label %36

34:                                               ; preds = %rb_array_len.exit14.thread, %RARRAY_AREF.exit, %rb_array_len.exit14, %RARRAY_AREF.exit17
  %35 = add nuw nsw i64 %.011, 1
  br label %6, !llvm.loop !60

36:                                               ; preds = %rb_array_len.exit.thread, %rb_array_len.exit, %RARRAY_AREF.exit17
  %.0 = phi i64 [ %18, %RARRAY_AREF.exit17 ], [ 4, %rb_array_len.exit ], [ 4, %rb_array_len.exit.thread ]
  ret i64 %.0
}